(lp0
S''
p1
a(lp2
(dp3
S'Bezeichnung'
p4
VSchnitzel
p5
sS'Bild'
p6
S'pictures/Frueh-Koelsch-PD7759207.png'
p7
sS'Kategorie'
p8
S'Mittag-Essen'
p9
sS'ID'
p10
I0
sS'Preis'
p11
V3,80
p12
sa(dp13
g4
VPommes
p14
sg6
S'pictures/Frueh-Koelsch-PD7759207.png'
p15
sg8
g9
sg10
I1
sg11
V2,50
p16
sa(dp17
S'Bezeichnung'
p18
VCurrywurst
p19
sS'Bild'
p20
g1
sS'Kategorie'
p21
S'Mittag-Essen'
p22
sS'ID'
p23
I2
sS'Preis'
p24
V2,20
p25
saa.